target datalayout = "e-m:e-p270:32:32-p271:32:32-p272:64:64-i64:64-i128:128-f80:128-n8:16:32:64-S128"
target triple = "x86_64-pc-linux-gnu"

%struct.engine_st = type { ptr, ptr, ptr, ptr, ptr, ptr, ptr, ptr, ptr, ptr, ptr, ptr, ptr, ptr, ptr, ptr, ptr, ptr, ptr, i32, %struct.CRYPTO_REF_COUNT, i32, %struct.crypto_ex_data_st, ptr, ptr, ptr, ptr, ptr }
%struct.CRYPTO_REF_COUNT = type { i32 }
%struct.crypto_ex_data_st = type { ptr, ptr }

@global_engine_lock = external global ptr, align 8
@.str = private unnamed_addr constant [36 x i8] c"../openssl/crypto/engine/eng_list.c\00", align 1
@engine_list_head = internal global ptr null, align 8
@engine_list_tail = internal global ptr null, align 8
@__func__.ENGINE_remove = private unnamed_addr constant [14 x i8] c"ENGINE_remove\00", align 1
@__func__.engine_list_remove = private unnamed_addr constant [19 x i8] c"engine_list_remove\00", align 1

; Function Attrs: nounwind uwtable
define internal i32 @engine_list_remove(ptr noundef %0) #0 {
  %2 = alloca i32, align 4
  %3 = alloca ptr, align 8
  %4 = alloca ptr, align 8
  %5 = alloca i32, align 4
  store ptr %0, ptr %3, align 8, !tbaa !3
  call void @llvm.lifetime.start.p0(i64 8, ptr %4) #5
  %6 = load ptr, ptr %3, align 8, !tbaa !3
  %7 = icmp eq ptr %6, null
  br i1 %7, label %8, label %9

8:                                                ; preds = %1
  call void @ERR_new()
  call void @ERR_set_debug(ptr noundef @.str, i32 noundef 124, ptr noundef @__func__.engine_list_remove)
  call void (i32, i32, ptr, ...) @ERR_set_error(i32 noundef 38, i32 noundef 786690, ptr noundef null)
  store i32 0, ptr %2, align 4
  store i32 1, ptr %5, align 4
  br label %73

9:                                                ; preds = %1
  %10 = load ptr, ptr @engine_list_head, align 8, !tbaa !3
  store ptr %10, ptr %4, align 8, !tbaa !3
  br label %11

11:                                               ; preds = %20, %9
  %12 = load ptr, ptr %4, align 8, !tbaa !3
  %13 = icmp ne ptr %12, null
  br i1 %13, label %14, label %18

14:                                               ; preds = %11
  %15 = load ptr, ptr %4, align 8, !tbaa !3
  %16 = load ptr, ptr %3, align 8, !tbaa !3
  %17 = icmp ne ptr %15, %16
  br label %18

18:                                               ; preds = %14, %11
  %19 = phi i1 [ false, %11 ], [ %17, %14 ]
  br i1 %19, label %20, label %24

20:                                               ; preds = %18
  %21 = load ptr, ptr %4, align 8, !tbaa !3
  %22 = getelementptr inbounds nuw %struct.engine_st, ptr %21, i32 0, i32 24
  %23 = load ptr, ptr %22, align 8, !tbaa !24
  store ptr %23, ptr %4, align 8, !tbaa !3
  br label %11, !llvm.loop !35

24:                                               ; preds = %18
  %25 = load ptr, ptr %4, align 8, !tbaa !3
  %26 = icmp eq ptr %25, null
  br i1 %26, label %27, label %28

27:                                               ; preds = %24
  call void @ERR_new()
  call void @ERR_set_debug(ptr noundef @.str, i32 noundef 132, ptr noundef @__func__.engine_list_remove)
  call void (i32, i32, ptr, ...) @ERR_set_error(i32 noundef 38, i32 noundef 105, ptr noundef null)
  store i32 0, ptr %2, align 4
  store i32 1, ptr %5, align 4
  br label %73

28:                                               ; preds = %24
  %29 = load ptr, ptr %3, align 8, !tbaa !3
  %30 = getelementptr inbounds nuw %struct.engine_st, ptr %29, i32 0, i32 24
  %31 = load ptr, ptr %30, align 8, !tbaa !24
  %32 = icmp ne ptr %31, null
  br i1 %32, label %33, label %41

33:                                               ; preds = %28
  %34 = load ptr, ptr %3, align 8, !tbaa !3
  %35 = getelementptr inbounds nuw %struct.engine_st, ptr %34, i32 0, i32 23
  %36 = load ptr, ptr %35, align 8, !tbaa !31
  %37 = load ptr, ptr %3, align 8, !tbaa !3
  %38 = getelementptr inbounds nuw %struct.engine_st, ptr %37, i32 0, i32 24
  %39 = load ptr, ptr %38, align 8, !tbaa !24
  %40 = getelementptr inbounds nuw %struct.engine_st, ptr %39, i32 0, i32 23
  store ptr %36, ptr %40, align 8, !tbaa !31
  br label %41

41:                                               ; preds = %33, %28
  %42 = load ptr, ptr %3, align 8, !tbaa !3
  %43 = getelementptr inbounds nuw %struct.engine_st, ptr %42, i32 0, i32 23
  %44 = load ptr, ptr %43, align 8, !tbaa !31
  %45 = icmp ne ptr %44, null
  br i1 %45, label %46, label %54

46:                                               ; preds = %41
  %47 = load ptr, ptr %3, align 8, !tbaa !3
  %48 = getelementptr inbounds nuw %struct.engine_st, ptr %47, i32 0, i32 24
  %49 = load ptr, ptr %48, align 8, !tbaa !24
  %50 = load ptr, ptr %3, align 8, !tbaa !3
  %51 = getelementptr inbounds nuw %struct.engine_st, ptr %50, i32 0, i32 23
  %52 = load ptr, ptr %51, align 8, !tbaa !31
  %53 = getelementptr inbounds nuw %struct.engine_st, ptr %52, i32 0, i32 24
  store ptr %49, ptr %53, align 8, !tbaa !24
  br label %54

54:                                               ; preds = %46, %41
  %55 = load ptr, ptr @engine_list_head, align 8, !tbaa !3
  %56 = load ptr, ptr %3, align 8, !tbaa !3
  %57 = icmp eq ptr %55, %56
  br i1 %57, label %58, label %62

58:                                               ; preds = %54
  %59 = load ptr, ptr %3, align 8, !tbaa !3
  %60 = getelementptr inbounds nuw %struct.engine_st, ptr %59, i32 0, i32 24
  %61 = load ptr, ptr %60, align 8, !tbaa !24
  store ptr %61, ptr @engine_list_head, align 8, !tbaa !3
  br label %62

62:                                               ; preds = %58, %54
  %63 = load ptr, ptr @engine_list_tail, align 8, !tbaa !3
  %64 = load ptr, ptr %3, align 8, !tbaa !3
  %65 = icmp eq ptr %63, %64
  br i1 %65, label %66, label %70

66:                                               ; preds = %62
  %67 = load ptr, ptr %3, align 8, !tbaa !3
  %68 = getelementptr inbounds nuw %struct.engine_st, ptr %67, i32 0, i32 23
  %69 = load ptr, ptr %68, align 8, !tbaa !31
  store ptr %69, ptr @engine_list_tail, align 8, !tbaa !3
  br label %70

70:                                               ; preds = %66, %62
  %71 = load ptr, ptr %3, align 8, !tbaa !3
  %72 = call i32 @engine_free_util(ptr noundef %71, i32 noundef 0)
  store i32 1, ptr %2, align 4
  store i32 1, ptr %5, align 4
  br label %73

73:                                               ; preds = %70, %27, %8
  call void @llvm.lifetime.end.p0(i64 8, ptr %4) #5
  %74 = load i32, ptr %2, align 4
  ret i32 %74
}

; Function Attrs: nounwind uwtable
define i32 @ENGINE_remove(ptr noundef %0) #0 {
  %2 = alloca i32, align 4
  %3 = alloca ptr, align 8
  %4 = alloca i32, align 4
  %5 = alloca i32, align 4
  store ptr %0, ptr %3, align 8, !tbaa !3
  call void @llvm.lifetime.start.p0(i64 4, ptr %4) #5
  store i32 1, ptr %4, align 4, !tbaa !9
  %6 = load ptr, ptr %3, align 8, !tbaa !3
  %7 = icmp eq ptr %6, null
  br i1 %7, label %8, label %9

8:                                                ; preds = %1
  call void @ERR_new()
  call void @ERR_set_debug(ptr noundef @.str, i32 noundef 365, ptr noundef @__func__.ENGINE_remove)
  call void (i32, i32, ptr, ...) @ERR_set_error(i32 noundef 38, i32 noundef 786690, ptr noundef null)
  store i32 0, ptr %2, align 4
  store i32 1, ptr %5, align 4
  br label %23

9:                                                ; preds = %1
  %10 = load ptr, ptr @global_engine_lock, align 8, !tbaa !8
  %11 = call i32 @CRYPTO_THREAD_write_lock(ptr noundef %10)
  %12 = icmp ne i32 %11, 0
  br i1 %12, label %14, label %13

13:                                               ; preds = %9
  store i32 0, ptr %2, align 4
  store i32 1, ptr %5, align 4
  br label %23

14:                                               ; preds = %9
  %15 = load ptr, ptr %3, align 8, !tbaa !3
  %16 = call i32 @engine_list_remove(ptr noundef %15)
  %17 = icmp ne i32 %16, 0
  br i1 %17, label %19, label %18

18:                                               ; preds = %14
  call void @ERR_new()
  call void @ERR_set_debug(ptr noundef @.str, i32 noundef 371, ptr noundef @__func__.ENGINE_remove)
  call void (i32, i32, ptr, ...) @ERR_set_error(i32 noundef 38, i32 noundef 110, ptr noundef null)
  store i32 0, ptr %4, align 4, !tbaa !9
  br label %19

19:                                               ; preds = %18, %14
  %20 = load ptr, ptr @global_engine_lock, align 8, !tbaa !8
  %21 = call i32 @CRYPTO_THREAD_unlock(ptr noundef %20)
  %22 = load i32, ptr %4, align 4, !tbaa !9
  store i32 %22, ptr %2, align 4
  store i32 1, ptr %5, align 4
  br label %23

23:                                               ; preds = %19, %13, %8
  call void @llvm.lifetime.end.p0(i64 4, ptr %4) #5
  %24 = load i32, ptr %2, align 4
  ret i32 %24
}