; Function Attrs: nounwind uwtable
define range(i32 0, 2) i32 @ENGINE_remove(ptr noundef %0) local_unnamed_addr #0 {
  %2 = icmp eq ptr %0, null
  br i1 %2, label %3, label %4

3:                                                ; preds = %1
  tail call void @ERR_new() #4
  tail call void @ERR_set_debug(ptr noundef nonnull @.str, i32 noundef 365, ptr noundef nonnull @__func__.ENGINE_remove) #4
  tail call void (i32, i32, ptr, ...) @ERR_set_error(i32 noundef 38, i32 noundef 786690, ptr noundef null) #4
  br label %34

4:                                                ; preds = %1
  %5 = load ptr, ptr @global_engine_lock, align 8, !tbaa !21
  %6 = tail call i32 @CRYPTO_THREAD_write_lock(ptr noundef %5) #4
  %.not = icmp eq i32 %6, 0
  br i1 %.not, label %34, label %.preheader

.preheader:                                       ; preds = %4, %.preheader
  %.0.in.i = phi ptr [ %10, %.preheader ], [ @engine_list_head, %4 ]
  %.0.i = load ptr, ptr %.0.in.i, align 8, !tbaa !22
  %7 = icmp ne ptr %.0.i, null
  %8 = icmp ne ptr %.0.i, %0
  %9 = and i1 %7, %8
  %10 = getelementptr inbounds nuw i8, ptr %.0.i, i64 192
  br i1 %9, label %.preheader, label %11, !llvm.loop !32

11:                                               ; preds = %.preheader
  %12 = icmp eq ptr %.0.i, null
  br i1 %12, label %30, label %13

13:                                               ; preds = %11
  %14 = getelementptr inbounds nuw i8, ptr %0, i64 192
  %15 = load ptr, ptr %14, align 8, !tbaa !27
  %.not.i = icmp eq ptr %15, null
  %.phi.trans.insert.i = getelementptr inbounds nuw i8, ptr %0, i64 184
  %.pre.i = load ptr, ptr %.phi.trans.insert.i, align 8, !tbaa !28
  br i1 %.not.i, label %._crit_edge.i, label %16

16:                                               ; preds = %13
  %17 = getelementptr inbounds nuw i8, ptr %15, i64 184
  store ptr %.pre.i, ptr %17, align 8, !tbaa !28
  br label %._crit_edge.i

._crit_edge.i:                                    ; preds = %16, %13
  %.not21.i = icmp eq ptr %.pre.i, null
  br i1 %.not21.i, label %20, label %18

18:                                               ; preds = %._crit_edge.i
  %19 = getelementptr inbounds nuw i8, ptr %.pre.i, i64 192
  store ptr %15, ptr %19, align 8, !tbaa !27
  br label %20

20:                                               ; preds = %18, %._crit_edge.i
  %21 = load ptr, ptr @engine_list_head, align 8, !tbaa !22
  %22 = icmp eq ptr %21, %0
  br i1 %22, label %23, label %25

23:                                               ; preds = %20
  %24 = load ptr, ptr %14, align 8, !tbaa !27
  store ptr %24, ptr @engine_list_head, align 8, !tbaa !22
  br label %25

25:                                               ; preds = %23, %20
  %26 = load ptr, ptr @engine_list_tail, align 8, !tbaa !22
  %27 = icmp eq ptr %26, %0
  br i1 %27, label %28, label %engine_list_remove.exit

28:                                               ; preds = %25
  store ptr %.pre.i, ptr @engine_list_tail, align 8, !tbaa !22
  br label %engine_list_remove.exit

engine_list_remove.exit:                          ; preds = %25, %28
  %29 = tail call i32 @engine_free_util(ptr noundef nonnull %0, i32 noundef 0) #4
  br label %31

30:                                               ; preds = %11
  tail call void @ERR_new() #4
  tail call void @ERR_set_debug(ptr noundef nonnull @.str, i32 noundef 132, ptr noundef nonnull @__func__.engine_list_remove) #4
  tail call void (i32, i32, ptr, ...) @ERR_set_error(i32 noundef 38, i32 noundef 105, ptr noundef null) #4
  tail call void @ERR_new() #4
  tail call void @ERR_set_debug(ptr noundef nonnull @.str, i32 noundef 371, ptr noundef nonnull @__func__.ENGINE_remove) #4
  tail call void (i32, i32, ptr, ...) @ERR_set_error(i32 noundef 38, i32 noundef 110, ptr noundef null) #4
  br label %31

31:                                               ; preds = %engine_list_remove.exit, %30
  %.0 = phi i32 [ 1, %engine_list_remove.exit ], [ 0, %30 ]
  %32 = load ptr, ptr @global_engine_lock, align 8, !tbaa !21
  %33 = tail call i32 @CRYPTO_THREAD_unlock(ptr noundef %32) #4
  br label %34

34:                                               ; preds = %4, %31, %3
  %.03 = phi i32 [ 0, %3 ], [ %.0, %31 ], [ 0, %4 ]
  ret i32 %.03
}